target datalayout = "e-m:e-p270:32:32-p271:32:32-p272:64:64-i64:64-i128:128-f80:128-n8:16:32:64-S128"
target triple = "x86_64-unknown-linux-gnu"

%struct.SiFivePwmState = type { %struct.SysBusDevice, %struct.MemoryRegion, [4 x %struct.QEMUTimer], i64, i64, i32, [4 x i32], [4 x ptr] }
%struct.SysBusDevice = type { %struct.DeviceState, i32, [32 x %struct.anon], i32, [32 x i32] }
%struct.DeviceState = type { %struct.Object, ptr, ptr, i8, i8, i64, ptr, i32, i8, ptr, %struct.NamedGPIOListHead, %struct.NamedClockListHead, %struct.BusStateHead, i32, i32, i32, %struct.ResettableState, ptr, %struct.MemReentrancyGuard }
%struct.Object = type { ptr, ptr, ptr, i32, ptr }
%struct.NamedGPIOListHead = type { ptr }
%struct.NamedClockListHead = type { ptr }
%struct.BusStateHead = type { ptr }
%struct.ResettableState = type { i32, i8, i8 }
%struct.MemReentrancyGuard = type { i8 }
%struct.anon = type { i64, ptr }
%struct.MemoryRegion = type { %struct.Object, i8, i8, i8, i8, i8, i8, i8, i8, i8, i8, ptr, ptr, ptr, ptr, ptr, ptr, i32, i128, i64, ptr, i64, i8, i8, i8, i8, i8, ptr, i64, i32, %union.anon, %union.anon.0, %union.anon.1, ptr, i32, ptr, ptr, i8 }
%union.anon = type { %struct.QTailQLink }
%struct.QTailQLink = type { ptr, ptr }
%union.anon.0 = type { %struct.QTailQLink }
%union.anon.1 = type { %struct.QTailQLink }
%struct.QEMUTimer = type { i64, ptr, ptr, ptr, ptr, i32, i32 }

@.str = private unnamed_addr constant [11 x i8] c"sifive-pwm\00", align 1
@.str.2 = private unnamed_addr constant [30 x i8] c"../qemu/hw/timer/sifive_pwm.c\00", align 1
@__func__.sifive_pwm_reset = private unnamed_addr constant [17 x i8] c"sifive_pwm_reset\00", align 1

; Function Attrs: nounwind sspstrong uwtable
define internal i64 @muldiv64(i64 noundef %a, i32 noundef %b, i32 noundef %c) #0 {
entry:
  %a.addr = alloca i64, align 8
  %b.addr = alloca i32, align 4
  %c.addr = alloca i32, align 4
  store i64 %a, ptr %a.addr, align 8
  store i32 %b, ptr %b.addr, align 4
  store i32 %c, ptr %c.addr, align 4
  %0 = load i64, ptr %a.addr, align 8
  %conv = zext i64 %0 to i128
  %1 = load i32, ptr %b.addr, align 4
  %conv1 = zext i32 %1 to i128
  %mul = mul i128 %conv, %conv1
  %2 = load i32, ptr %c.addr, align 4
  %conv2 = zext i32 %2 to i128
  %div = sdiv i128 %mul, %conv2
  %conv3 = trunc i128 %div to i64
  ret i64 %conv3
}

; Function Attrs: nounwind sspstrong uwtable
define internal i64 @sifive_pwm_ns_to_ticks(ptr noundef %s, i64 noundef %time) #0 {
entry:
  %s.addr = alloca ptr, align 8
  %time.addr = alloca i64, align 8
  store ptr %s, ptr %s.addr, align 8
  store i64 %time, ptr %time.addr, align 8
  %0 = load i64, ptr %time.addr, align 8
  %1 = load ptr, ptr %s.addr, align 8
  %freq_hz = getelementptr inbounds %struct.SiFivePwmState, ptr %1, i32 0, i32 4
  %2 = load i64, ptr %freq_hz, align 8
  %conv = trunc i64 %2 to i32
  %call = call i64 @muldiv64(i64 noundef %0, i32 noundef %conv, i32 noundef 1000000000)
  ret i64 %call
}

; Function Attrs: nounwind sspstrong uwtable
define internal void @sifive_pwm_reset(ptr noundef %dev) #0 {
entry:
  %dev.addr = alloca ptr, align 8
  %s = alloca ptr, align 8
  %now = alloca i64, align 8
  store ptr %dev, ptr %dev.addr, align 8
  %0 = load ptr, ptr %dev.addr, align 8
  %call = call ptr @object_dynamic_cast_assert(ptr noundef %0, ptr noundef @.str, ptr noundef @.str.2, i32 noundef 376, ptr noundef @__func__.sifive_pwm_reset)
  store ptr %call, ptr %s, align 8
  %call1 = call i64 @qemu_clock_get_ns(i32 noundef 1)
  store i64 %call1, ptr %now, align 8
  %1 = load ptr, ptr %s, align 8
  %pwmcfg = getelementptr inbounds %struct.SiFivePwmState, ptr %1, i32 0, i32 5
  store i32 0, ptr %pwmcfg, align 16
  %2 = load ptr, ptr %s, align 8
  %pwmcmp = getelementptr inbounds %struct.SiFivePwmState, ptr %2, i32 0, i32 6
  %arrayidx = getelementptr [4 x i32], ptr %pwmcmp, i64 0, i64 0
  store i32 0, ptr %arrayidx, align 4
  %3 = load ptr, ptr %s, align 8
  %pwmcmp2 = getelementptr inbounds %struct.SiFivePwmState, ptr %3, i32 0, i32 6
  %arrayidx3 = getelementptr [4 x i32], ptr %pwmcmp2, i64 0, i64 1
  store i32 0, ptr %arrayidx3, align 4
  %4 = load ptr, ptr %s, align 8
  %pwmcmp4 = getelementptr inbounds %struct.SiFivePwmState, ptr %4, i32 0, i32 6
  %arrayidx5 = getelementptr [4 x i32], ptr %pwmcmp4, i64 0, i64 2
  store i32 0, ptr %arrayidx5, align 4
  %5 = load ptr, ptr %s, align 8
  %pwmcmp6 = getelementptr inbounds %struct.SiFivePwmState, ptr %5, i32 0, i32 6
  %arrayidx7 = getelementptr [4 x i32], ptr %pwmcmp6, i64 0, i64 3
  store i32 0, ptr %arrayidx7, align 4
  %6 = load ptr, ptr %s, align 8
  %7 = load i64, ptr %now, align 8
  %call8 = call i64 @sifive_pwm_ns_to_ticks(ptr noundef %6, i64 noundef %7)
  %8 = load ptr, ptr %s, align 8
  %tick_offset = getelementptr inbounds %struct.SiFivePwmState, ptr %8, i32 0, i32 3
  store i64 %call8, ptr %tick_offset, align 16
  ret void
}