; Function Attrs: nounwind sspstrong uwtable
define internal void @sifive_pwm_reset(ptr noundef %dev) #0 {
entry:
  %call = tail call ptr @object_dynamic_cast_assert(ptr noundef %dev, ptr noundef nonnull @.str, ptr noundef nonnull @.str.2, i32 noundef 376, ptr noundef nonnull @__func__.sifive_pwm_reset) #6
  %call1 = tail call i64 @qemu_clock_get_ns(i32 noundef 1) #6
  %pwmcfg = getelementptr inbounds nuw i8, ptr %call, i64 1296
  %0 = getelementptr i8, ptr %call, i64 1288
  tail call void @llvm.memset.p0.i64(ptr noundef nonnull align 16 dereferenceable(20) %pwmcfg, i8 0, i64 20, i1 false)
  %call.val = load i64, ptr %0, align 8
  %conv.i.i = zext i64 %call1 to i128
  %conv.mask.i = and i64 %call.val, 4294967295
  %conv1.i.i = zext nneg i64 %conv.mask.i to i128
  %mul.i.i = mul nuw nsw i128 %conv1.i.i, %conv.i.i
  %div.i.i = udiv i128 %mul.i.i, 1000000000
  %conv3.i.i = trunc i128 %div.i.i to i64
  %tick_offset = getelementptr inbounds nuw i8, ptr %call, i64 1280
  store i64 %conv3.i.i, ptr %tick_offset, align 16
  ret void
}